target datalayout = "e-m:e-p270:32:32-p271:32:32-p272:64:64-i64:64-i128:128-f80:128-n8:16:32:64-S128"
target triple = "x86_64-pc-linux-gnu"

%struct.gz_state = type { %struct.gzFile_s, i32, i32, ptr, i32, i32, ptr, ptr, i32, i32, i64, i32, i32, i32, i32, i32, i64, i32, i32, ptr, %struct.z_stream_s }
%struct.gzFile_s = type { i32, ptr, i64 }
%struct.z_stream_s = type { ptr, i32, i64, ptr, i32, i64, ptr, ptr, ptr, ptr, ptr, i32, i64, i64 }

; Function Attrs: nounwind uwtable
define internal i32 @gz_zero(ptr noundef %0, i64 noundef %1) #0 {
  %3 = alloca i32, align 4
  %4 = alloca ptr, align 8
  %5 = alloca i64, align 8
  %6 = alloca i32, align 4
  %7 = alloca i32, align 4
  %8 = alloca ptr, align 8
  %9 = alloca i32, align 4
  store ptr %0, ptr %4, align 8, !tbaa !8
  store i64 %1, ptr %5, align 8, !tbaa !19
  call void @llvm.lifetime.start.p0(i64 4, ptr %6) #10
  call void @llvm.lifetime.start.p0(i64 4, ptr %7) #10
  call void @llvm.lifetime.start.p0(i64 8, ptr %8) #10
  %10 = load ptr, ptr %4, align 8, !tbaa !8
  %11 = getelementptr inbounds nuw %struct.gz_state, ptr %10, i32 0, i32 20
  store ptr %11, ptr %8, align 8, !tbaa !30
  %12 = load ptr, ptr %8, align 8, !tbaa !30
  %13 = getelementptr inbounds nuw %struct.z_stream_s, ptr %12, i32 0, i32 1
  %14 = load i32, ptr %13, align 8, !tbaa !32
  %15 = icmp ne i32 %14, 0
  br i1 %15, label %16, label %21

16:                                               ; preds = %2
  %17 = load ptr, ptr %4, align 8, !tbaa !8
  %18 = call i32 @gz_comp(ptr noundef %17, i32 noundef 0)
  %19 = icmp eq i32 %18, -1
  br i1 %19, label %20, label %21

20:                                               ; preds = %16
  store i32 -1, ptr %3, align 4
  store i32 1, ptr %9, align 4
  br label %75

21:                                               ; preds = %16, %2
  store i32 1, ptr %6, align 4, !tbaa !9
  br label %22

22:                                               ; preds = %69, %21
  %23 = load i64, ptr %5, align 8, !tbaa !19
  %24 = icmp ne i64 %23, 0
  br i1 %24, label %25, label %74

25:                                               ; preds = %22
  %26 = load ptr, ptr %4, align 8, !tbaa !8
  %27 = getelementptr inbounds nuw %struct.gz_state, ptr %26, i32 0, i32 4
  %28 = load i32, ptr %27, align 8, !tbaa !20
  %29 = zext i32 %28 to i64
  %30 = load i64, ptr %5, align 8, !tbaa !19
  %31 = icmp sgt i64 %29, %30
  br i1 %31, label %32, label %35

32:                                               ; preds = %25
  %33 = load i64, ptr %5, align 8, !tbaa !19
  %34 = trunc i64 %33 to i32
  br label %39

35:                                               ; preds = %25
  %36 = load ptr, ptr %4, align 8, !tbaa !8
  %37 = getelementptr inbounds nuw %struct.gz_state, ptr %36, i32 0, i32 4
  %38 = load i32, ptr %37, align 8, !tbaa !20
  br label %39

39:                                               ; preds = %35, %32
  %40 = phi i32 [ %34, %32 ], [ %38, %35 ]
  store i32 %40, ptr %7, align 4, !tbaa !9
  %41 = load i32, ptr %6, align 4, !tbaa !9
  %42 = icmp ne i32 %41, 0
  br i1 %42, label %43, label %49

43:                                               ; preds = %39
  %44 = load ptr, ptr %4, align 8, !tbaa !8
  %45 = getelementptr inbounds nuw %struct.gz_state, ptr %44, i32 0, i32 6
  %46 = load ptr, ptr %45, align 8, !tbaa !24
  %47 = load i32, ptr %7, align 4, !tbaa !9
  %48 = zext i32 %47 to i64
  call void @llvm.memset.p0.i64(ptr align 1 %46, i8 0, i64 %48, i1 false)
  store i32 0, ptr %6, align 4, !tbaa !9
  br label %49

49:                                               ; preds = %43, %39
  %50 = load i32, ptr %7, align 4, !tbaa !9
  %51 = load ptr, ptr %8, align 8, !tbaa !30
  %52 = getelementptr inbounds nuw %struct.z_stream_s, ptr %51, i32 0, i32 1
  store i32 %50, ptr %52, align 8, !tbaa !32
  %53 = load ptr, ptr %4, align 8, !tbaa !8
  %54 = getelementptr inbounds nuw %struct.gz_state, ptr %53, i32 0, i32 6
  %55 = load ptr, ptr %54, align 8, !tbaa !24
  %56 = load ptr, ptr %8, align 8, !tbaa !30
  %57 = getelementptr inbounds nuw %struct.z_stream_s, ptr %56, i32 0, i32 0
  store ptr %55, ptr %57, align 8, !tbaa !33
  %58 = load i32, ptr %7, align 4, !tbaa !9
  %59 = zext i32 %58 to i64
  %60 = load ptr, ptr %4, align 8, !tbaa !8
  %61 = getelementptr inbounds nuw %struct.gz_state, ptr %60, i32 0, i32 0
  %62 = getelementptr inbounds nuw %struct.gzFile_s, ptr %61, i32 0, i32 2
  %63 = load i64, ptr %62, align 8, !tbaa !26
  %64 = add nsw i64 %63, %59
  store i64 %64, ptr %62, align 8, !tbaa !26
  %65 = load ptr, ptr %4, align 8, !tbaa !8
  %66 = call i32 @gz_comp(ptr noundef %65, i32 noundef 0)
  %67 = icmp eq i32 %66, -1
  br i1 %67, label %68, label %69

68:                                               ; preds = %49
  store i32 -1, ptr %3, align 4
  store i32 1, ptr %9, align 4
  br label %75

69:                                               ; preds = %49
  %70 = load i32, ptr %7, align 4, !tbaa !9
  %71 = zext i32 %70 to i64
  %72 = load i64, ptr %5, align 8, !tbaa !19
  %73 = sub nsw i64 %72, %71
  store i64 %73, ptr %5, align 8, !tbaa !19
  br label %22, !llvm.loop !35

74:                                               ; preds = %22
  store i32 0, ptr %3, align 4
  store i32 1, ptr %9, align 4
  br label %75

75:                                               ; preds = %74, %68, %20
  call void @llvm.lifetime.end.p0(i64 8, ptr %8) #10
  call void @llvm.lifetime.end.p0(i64 4, ptr %7) #10
  call void @llvm.lifetime.end.p0(i64 4, ptr %6) #10
  %76 = load i32, ptr %3, align 4
  ret i32 %76
}

; Function Attrs: nounwind uwtable
define i32 @gzsetparams(ptr noundef %0, i32 noundef %1, i32 noundef %2) #0 {
  %4 = alloca i32, align 4
  %5 = alloca ptr, align 8
  %6 = alloca i32, align 4
  %7 = alloca i32, align 4
  %8 = alloca ptr, align 8
  %9 = alloca ptr, align 8
  %10 = alloca i32, align 4
  store ptr %0, ptr %5, align 8, !tbaa !3
  store i32 %1, ptr %6, align 4, !tbaa !9
  store i32 %2, ptr %7, align 4, !tbaa !9
  call void @llvm.lifetime.start.p0(i64 8, ptr %8) #10
  call void @llvm.lifetime.start.p0(i64 8, ptr %9) #10
  %11 = load ptr, ptr %5, align 8, !tbaa !3
  %12 = icmp eq ptr %11, null
  br i1 %12, label %13, label %14

13:                                               ; preds = %3
  store i32 -2, ptr %4, align 4
  store i32 1, ptr %10, align 4
  br label %95

14:                                               ; preds = %3
  %15 = load ptr, ptr %5, align 8, !tbaa !3
  store ptr %15, ptr %8, align 8, !tbaa !8
  %16 = load ptr, ptr %8, align 8, !tbaa !8
  %17 = getelementptr inbounds nuw %struct.gz_state, ptr %16, i32 0, i32 20
  store ptr %17, ptr %9, align 8, !tbaa !30
  %18 = load ptr, ptr %8, align 8, !tbaa !8
  %19 = getelementptr inbounds nuw %struct.gz_state, ptr %18, i32 0, i32 1
  %20 = load i32, ptr %19, align 8, !tbaa !11
  %21 = icmp ne i32 %20, 31153
  br i1 %21, label %32, label %22

22:                                               ; preds = %14
  %23 = load ptr, ptr %8, align 8, !tbaa !8
  %24 = getelementptr inbounds nuw %struct.gz_state, ptr %23, i32 0, i32 18
  %25 = load i32, ptr %24, align 4, !tbaa !18
  %26 = icmp ne i32 %25, 0
  br i1 %26, label %32, label %27

27:                                               ; preds = %22
  %28 = load ptr, ptr %8, align 8, !tbaa !8
  %29 = getelementptr inbounds nuw %struct.gz_state, ptr %28, i32 0, i32 8
  %30 = load i32, ptr %29, align 8, !tbaa !40
  %31 = icmp ne i32 %30, 0
  br i1 %31, label %32, label %33

32:                                               ; preds = %27, %22, %14
  store i32 -2, ptr %4, align 4
  store i32 1, ptr %10, align 4
  br label %95

33:                                               ; preds = %27
  %34 = load i32, ptr %6, align 4, !tbaa !9
  %35 = load ptr, ptr %8, align 8, !tbaa !8
  %36 = getelementptr inbounds nuw %struct.gz_state, ptr %35, i32 0, i32 13
  %37 = load i32, ptr %36, align 8, !tbaa !45
  %38 = icmp eq i32 %34, %37
  br i1 %38, label %39, label %46

39:                                               ; preds = %33
  %40 = load i32, ptr %7, align 4, !tbaa !9
  %41 = load ptr, ptr %8, align 8, !tbaa !8
  %42 = getelementptr inbounds nuw %struct.gz_state, ptr %41, i32 0, i32 14
  %43 = load i32, ptr %42, align 4, !tbaa !46
  %44 = icmp eq i32 %40, %43
  br i1 %44, label %45, label %46

45:                                               ; preds = %39
  store i32 0, ptr %4, align 4
  store i32 1, ptr %10, align 4
  br label %95

46:                                               ; preds = %39, %33
  %47 = load ptr, ptr %8, align 8, !tbaa !8
  %48 = getelementptr inbounds nuw %struct.gz_state, ptr %47, i32 0, i32 17
  %49 = load i32, ptr %48, align 8, !tbaa !21
  %50 = icmp ne i32 %49, 0
  br i1 %50, label %51, label %65

51:                                               ; preds = %46
  %52 = load ptr, ptr %8, align 8, !tbaa !8
  %53 = getelementptr inbounds nuw %struct.gz_state, ptr %52, i32 0, i32 17
  store i32 0, ptr %53, align 8, !tbaa !21
  %54 = load ptr, ptr %8, align 8, !tbaa !8
  %55 = load ptr, ptr %8, align 8, !tbaa !8
  %56 = getelementptr inbounds nuw %struct.gz_state, ptr %55, i32 0, i32 16
  %57 = load i64, ptr %56, align 8, !tbaa !22
  %58 = call i32 @gz_zero(ptr noundef %54, i64 noundef %57)
  %59 = icmp eq i32 %58, -1
  br i1 %59, label %60, label %64

60:                                               ; preds = %51
  %61 = load ptr, ptr %8, align 8, !tbaa !8
  %62 = getelementptr inbounds nuw %struct.gz_state, ptr %61, i32 0, i32 18
  %63 = load i32, ptr %62, align 4, !tbaa !18
  store i32 %63, ptr %4, align 4
  store i32 1, ptr %10, align 4
  br label %95

64:                                               ; preds = %51
  br label %65

65:                                               ; preds = %64, %46
  %66 = load ptr, ptr %8, align 8, !tbaa !8
  %67 = getelementptr inbounds nuw %struct.gz_state, ptr %66, i32 0, i32 4
  %68 = load i32, ptr %67, align 8, !tbaa !20
  %69 = icmp ne i32 %68, 0
  br i1 %69, label %70, label %88

70:                                               ; preds = %65
  %71 = load ptr, ptr %9, align 8, !tbaa !30
  %72 = getelementptr inbounds nuw %struct.z_stream_s, ptr %71, i32 0, i32 1
  %73 = load i32, ptr %72, align 8, !tbaa !32
  %74 = icmp ne i32 %73, 0
  br i1 %74, label %75, label %83

75:                                               ; preds = %70
  %76 = load ptr, ptr %8, align 8, !tbaa !8
  %77 = call i32 @gz_comp(ptr noundef %76, i32 noundef 5)
  %78 = icmp eq i32 %77, -1
  br i1 %78, label %79, label %83

79:                                               ; preds = %75
  %80 = load ptr, ptr %8, align 8, !tbaa !8
  %81 = getelementptr inbounds nuw %struct.gz_state, ptr %80, i32 0, i32 18
  %82 = load i32, ptr %81, align 4, !tbaa !18
  store i32 %82, ptr %4, align 4
  store i32 1, ptr %10, align 4
  br label %95

83:                                               ; preds = %75, %70
  %84 = load ptr, ptr %9, align 8, !tbaa !30
  %85 = load i32, ptr %6, align 4, !tbaa !9
  %86 = load i32, ptr %7, align 4, !tbaa !9
  %87 = call i32 @deflateParams(ptr noundef %84, i32 noundef %85, i32 noundef %86)
  br label %88

88:                                               ; preds = %83, %65
  %89 = load i32, ptr %6, align 4, !tbaa !9
  %90 = load ptr, ptr %8, align 8, !tbaa !8
  %91 = getelementptr inbounds nuw %struct.gz_state, ptr %90, i32 0, i32 13
  store i32 %89, ptr %91, align 8, !tbaa !45
  %92 = load i32, ptr %7, align 4, !tbaa !9
  %93 = load ptr, ptr %8, align 8, !tbaa !8
  %94 = getelementptr inbounds nuw %struct.gz_state, ptr %93, i32 0, i32 14
  store i32 %92, ptr %94, align 4, !tbaa !46
  store i32 0, ptr %4, align 4
  store i32 1, ptr %10, align 4
  br label %95

95:                                               ; preds = %88, %79, %60, %45, %32, %13
  call void @llvm.lifetime.end.p0(i64 8, ptr %9) #10
  call void @llvm.lifetime.end.p0(i64 8, ptr %8) #10
  %96 = load i32, ptr %4, align 4
  ret i32 %96
}